; Function Attrs: nofree norecurse nosync nounwind memory(argmem: readwrite) uwtable
define internal void @vertical_compose_daub97iH1_8bit(ptr noundef readonly captures(none) %0, ptr noundef captures(none) %1, ptr noundef readonly captures(none) %2, i32 noundef %3) #3 {
  %5 = icmp sgt i32 %3, 0
  br i1 %5, label %.lr.ph.preheader, label %._crit_edge

.lr.ph.preheader:                                 ; preds = %4
  %wide.trip.count = zext nneg i32 %3 to i64
  br label %.lr.ph

.lr.ph:                                           ; preds = %.lr.ph.preheader, %.lr.ph
  %indvars.iv = phi i64 [ 0, %.lr.ph.preheader ], [ %indvars.iv.next, %.lr.ph ]
  %6 = getelementptr inbounds nuw i16, ptr %1, i64 %indvars.iv
  %7 = load i16, ptr %6, align 2, !tbaa !39
  %8 = getelementptr inbounds nuw i16, ptr %0, i64 %indvars.iv
  %9 = load i16, ptr %8, align 2, !tbaa !39
  %10 = sext i16 %9 to i32
  %11 = getelementptr inbounds nuw i16, ptr %2, i64 %indvars.iv
  %12 = load i16, ptr %11, align 2, !tbaa !39
  %13 = sext i16 %12 to i32
  %14 = add nsw i32 %13, %10
  %15 = mul nsw i32 %14, 113
  %16 = add nsw i32 %15, 64
  %17 = lshr i32 %16, 7
  %18 = trunc i32 %17 to i16
  %19 = sub i16 %7, %18
  store i16 %19, ptr %6, align 2, !tbaa !39
  %indvars.iv.next = add nuw nsw i64 %indvars.iv, 1
  %exitcond.not = icmp eq i64 %indvars.iv.next, %wide.trip.count
  br i1 %exitcond.not, label %._crit_edge, label %.lr.ph, !llvm.loop !67

._crit_edge:                                      ; preds = %.lr.ph, %4
  ret void
}